target datalayout = "e-m:e-p270:32:32-p271:32:32-p272:64:64-i64:64-i128:128-f80:128-n8:16:32:64-S128"
target triple = "x86_64-pc-linux-gnu"

%struct.mz_zip_archive_tag = type { i64, i64, i32, i32, i32, ptr, ptr, ptr, ptr, ptr, ptr, ptr, ptr }
%struct.mz_zip_internal_state_tag = type { %struct.mz_zip_array, %struct.mz_zip_array, %struct.mz_zip_array, ptr, ptr, i64, i64 }
%struct.mz_zip_array = type { ptr, i64, i64, i32 }

; Function Attrs: mustprogress uwtable
define i32 @mz_zip_reader_is_file_encrypted(ptr noundef %0, i32 noundef %1) #5 {
  %3 = alloca ptr, align 8
  %4 = alloca ptr, align 8
  %5 = alloca i32, align 4
  %6 = alloca i32, align 4
  %7 = alloca ptr, align 8
  %8 = alloca i32, align 4
  %9 = alloca i32, align 4
  %10 = alloca ptr, align 8
  store ptr %0, ptr %7, align 8
  store i32 %1, ptr %8, align 4
  %11 = load ptr, ptr %7, align 8
  %12 = load i32, ptr %8, align 4
  store ptr %11, ptr %4, align 8
  store i32 %12, ptr %5, align 4
  %13 = load ptr, ptr %4, align 8
  %14 = icmp ne ptr %13, null
  br i1 %14, label %15, label %31

15:                                               ; preds = %2
  %16 = load ptr, ptr %4, align 8
  %17 = getelementptr inbounds %struct.mz_zip_archive_tag, ptr %16, i32 0, i32 12
  %18 = load ptr, ptr %17, align 8
  %19 = icmp ne ptr %18, null
  br i1 %19, label %20, label %31

20:                                               ; preds = %15
  %21 = load i32, ptr %5, align 4
  %22 = load ptr, ptr %4, align 8
  %23 = getelementptr inbounds %struct.mz_zip_archive_tag, ptr %22, i32 0, i32 2
  %24 = load i32, ptr %23, align 8
  %25 = icmp uge i32 %21, %24
  br i1 %25, label %31, label %26

26:                                               ; preds = %20
  %27 = load ptr, ptr %4, align 8
  %28 = getelementptr inbounds %struct.mz_zip_archive_tag, ptr %27, i32 0, i32 3
  %29 = load i32, ptr %28, align 4
  %30 = icmp ne i32 %29, 1
  br i1 %30, label %31, label %32

31:                                               ; preds = %26, %20, %15, %2
  store ptr null, ptr %3, align 8
  br label %48

32:                                               ; preds = %26
  %33 = load ptr, ptr %4, align 8
  %34 = getelementptr inbounds %struct.mz_zip_archive_tag, ptr %33, i32 0, i32 12
  %35 = load ptr, ptr %34, align 8
  %36 = load ptr, ptr %35, align 8
  %37 = load ptr, ptr %4, align 8
  %38 = getelementptr inbounds %struct.mz_zip_archive_tag, ptr %37, i32 0, i32 12
  %39 = load ptr, ptr %38, align 8
  %40 = getelementptr inbounds %struct.mz_zip_internal_state_tag, ptr %39, i32 0, i32 1
  %41 = load ptr, ptr %40, align 8
  %42 = load i32, ptr %5, align 4
  %43 = zext i32 %42 to i64
  %44 = getelementptr inbounds i32, ptr %41, i64 %43
  %45 = load i32, ptr %44, align 4
  %46 = zext i32 %45 to i64
  %47 = getelementptr inbounds i8, ptr %36, i64 %46
  store ptr %47, ptr %3, align 8
  br label %48

48:                                               ; preds = %32, %31
  %49 = load ptr, ptr %3, align 8
  store ptr %49, ptr %10, align 8
  %50 = load ptr, ptr %10, align 8
  %51 = icmp ne ptr %50, null
  br i1 %51, label %53, label %52

52:                                               ; preds = %48
  store i32 0, ptr %6, align 4
  br label %60

53:                                               ; preds = %48
  %54 = load ptr, ptr %10, align 8
  %55 = getelementptr inbounds i8, ptr %54, i64 8
  %56 = load i16, ptr %55, align 2
  %57 = zext i16 %56 to i32
  store i32 %57, ptr %9, align 4
  %58 = load i32, ptr %9, align 4
  %59 = and i32 %58, 1
  store i32 %59, ptr %6, align 4
  br label %60

60:                                               ; preds = %53, %52
  %61 = load i32, ptr %6, align 4
  ret i32 %61
}