; Function Attrs: mustprogress nofree norecurse nosync nounwind willreturn memory(read, inaccessiblemem: none) uwtable
define i32 @mz_zip_reader_is_file_encrypted(ptr noundef readonly %0, i32 noundef %1) local_unnamed_addr #12 {
  %.not = icmp eq ptr %0, null
  br i1 %.not, label %.thread, label %3

3:                                                ; preds = %2
  %4 = getelementptr inbounds i8, ptr %0, i64 88
  %5 = load ptr, ptr %4, align 8
  %.not18 = icmp eq ptr %5, null
  br i1 %.not18, label %.thread, label %6

6:                                                ; preds = %3
  %7 = getelementptr inbounds i8, ptr %0, i64 16
  %8 = load i32, ptr %7, align 8
  %.not19 = icmp ugt i32 %8, %1
  br i1 %.not19, label %9, label %.thread

9:                                                ; preds = %6
  %10 = getelementptr inbounds i8, ptr %0, i64 20
  %11 = load i32, ptr %10, align 4
  %.not20 = icmp eq i32 %11, 1
  br i1 %.not20, label %12, label %.thread

12:                                               ; preds = %9
  %13 = load ptr, ptr %5, align 8
  %.not21 = icmp eq ptr %13, null
  br i1 %.not21, label %.thread, label %14

14:                                               ; preds = %12
  %15 = getelementptr inbounds i8, ptr %5, i64 32
  %16 = load ptr, ptr %15, align 8
  %17 = zext i32 %1 to i64
  %18 = getelementptr inbounds i32, ptr %16, i64 %17
  %19 = load i32, ptr %18, align 4
  %20 = zext i32 %19 to i64
  %21 = getelementptr inbounds i8, ptr %13, i64 %20
  %22 = getelementptr inbounds i8, ptr %21, i64 8
  %23 = load i16, ptr %22, align 2
  %24 = and i16 %23, 1
  %25 = zext nneg i16 %24 to i32
  br label %.thread

.thread:                                          ; preds = %2, %3, %6, %9, %12, %14
  %.014 = phi i32 [ %25, %14 ], [ 0, %12 ], [ 0, %9 ], [ 0, %6 ], [ 0, %3 ], [ 0, %2 ]
  ret i32 %.014
}